#include <math.h>
#include <stdio.h>
#include <stdlib.h>
#include <string.h>
#include <iostream>
using namespace std;

//??????????????????????????????
//1.??i?????s[i]?????s[2]==(s[1]-k)*(n-1/n);s[n]==(s[n-1]-k)*(n-1/n)
//2.???s[n]+(n-1)k?????????????s[n]-(n-1)k==[(n-1/n)^n](s[1]+(n-1)*k)
//????????s[n+1]?????s1+(n-1)k?????n^n
long ppow(int a,int b)//??????????
{
    
    if(b==1)
        return (long)a;
    else if(b%2)
    {
        long t=ppow(a,(b-1)/2);
        return t*t*a;
    }else
    {
        long t=ppow(a,b/2);
        return t*t;
    }
}
int main()
{
    int n,k;
    cin >> n >> k;
    long ans;
    ans=ppow(n,n)-(n-1)*k;//???????????
    cout << ans << endl;
    return 0;
}